target datalayout = "e-m:e-p270:32:32-p271:32:32-p272:64:64-i64:64-i128:128-f80:128-n8:16:32:64-S128"
target triple = "x86_64-pc-linux-gnu"

%"class.__cxxabiv1::(anonymous namespace)::st_cxa_cleanup" = type <{ ptr, ptr, i64, ptr, i8, [7 x i8] }>
%"class.__cxxabiv1::(anonymous namespace)::st_heap_block3" = type <{ ptr, ptr, i64, i8, [7 x i8] }>

; Function Attrs: mustprogress nounwind uwtable
define internal void @_ZN10__cxxabiv112_GLOBAL__N_114st_cxa_cleanup7releaseEv(ptr noundef nonnull align 8 dereferenceable(33) %0) #4 align 2 {
  %2 = alloca ptr, align 8
  store ptr %0, ptr %2, align 8, !tbaa !31
  %3 = load ptr, ptr %2, align 8
  %4 = getelementptr inbounds nuw %"class.__cxxabiv1::(anonymous namespace)::st_cxa_cleanup", ptr %3, i32 0, i32 4
  store i8 0, ptr %4, align 8, !tbaa !39
  ret void
}

; Function Attrs: mustprogress nounwind uwtable
define internal void @_ZN10__cxxabiv112_GLOBAL__N_114st_cxa_cleanupC2EPvRmmPFvS2_E(ptr noundef nonnull align 8 dereferenceable(33) %0, ptr noundef %1, ptr noundef nonnull align 8 dereferenceable(8) %2, i64 noundef %3, ptr noundef %4) unnamed_addr #4 align 2 {
  %6 = alloca ptr, align 8
  %7 = alloca ptr, align 8
  %8 = alloca ptr, align 8
  %9 = alloca i64, align 8
  %10 = alloca ptr, align 8
  store ptr %0, ptr %6, align 8, !tbaa !31
  store ptr %1, ptr %7, align 8, !tbaa !8
  store ptr %2, ptr %8, align 8, !tbaa !33
  store i64 %3, ptr %9, align 8, !tbaa !4
  store ptr %4, ptr %10, align 8, !tbaa !8
  %11 = load ptr, ptr %6, align 8
  %12 = getelementptr inbounds nuw %"class.__cxxabiv1::(anonymous namespace)::st_cxa_cleanup", ptr %11, i32 0, i32 0
  %13 = load ptr, ptr %7, align 8, !tbaa !8
  store ptr %13, ptr %12, align 8, !tbaa !35
  %14 = getelementptr inbounds nuw %"class.__cxxabiv1::(anonymous namespace)::st_cxa_cleanup", ptr %11, i32 0, i32 1
  %15 = load ptr, ptr %8, align 8, !tbaa !33
  store ptr %15, ptr %14, align 8, !tbaa !33
  %16 = getelementptr inbounds nuw %"class.__cxxabiv1::(anonymous namespace)::st_cxa_cleanup", ptr %11, i32 0, i32 2
  %17 = load i64, ptr %9, align 8, !tbaa !4
  store i64 %17, ptr %16, align 8, !tbaa !37
  %18 = getelementptr inbounds nuw %"class.__cxxabiv1::(anonymous namespace)::st_cxa_cleanup", ptr %11, i32 0, i32 3
  %19 = load ptr, ptr %10, align 8, !tbaa !8
  store ptr %19, ptr %18, align 8, !tbaa !38
  %20 = getelementptr inbounds nuw %"class.__cxxabiv1::(anonymous namespace)::st_cxa_cleanup", ptr %11, i32 0, i32 4
  store i8 1, ptr %20, align 8, !tbaa !39
  ret void
}

; Function Attrs: mustprogress nounwind uwtable
define internal noundef zeroext i1 @_ZN10__cxxabiv112_GLOBAL__N_112add_overflowEmmPm(i64 noundef %0, i64 noundef %1, ptr noundef %2) #4 {
  %4 = alloca i64, align 8
  %5 = alloca i64, align 8
  %6 = alloca ptr, align 8
  store i64 %0, ptr %4, align 8, !tbaa !4
  store i64 %1, ptr %5, align 8, !tbaa !4
  store ptr %2, ptr %6, align 8, !tbaa !33
  %7 = load i64, ptr %4, align 8, !tbaa !4
  %8 = load i64, ptr %5, align 8, !tbaa !4
  %9 = load ptr, ptr %6, align 8, !tbaa !33
  %10 = call { i64, i1 } @llvm.uadd.with.overflow.i64(i64 %7, i64 %8)
  %11 = extractvalue { i64, i1 } %10, 1
  %12 = extractvalue { i64, i1 } %10, 0
  store i64 %12, ptr %9, align 8
  ret i1 %11
}

; Function Attrs: mustprogress nounwind uwtable
define internal noundef zeroext i1 @_ZN10__cxxabiv112_GLOBAL__N_112mul_overflowEmmPm(i64 noundef %0, i64 noundef %1, ptr noundef %2) #4 {
  %4 = alloca i64, align 8
  %5 = alloca i64, align 8
  %6 = alloca ptr, align 8
  store i64 %0, ptr %4, align 8, !tbaa !4
  store i64 %1, ptr %5, align 8, !tbaa !4
  store ptr %2, ptr %6, align 8, !tbaa !33
  %7 = load i64, ptr %4, align 8, !tbaa !4
  %8 = load i64, ptr %5, align 8, !tbaa !4
  %9 = load ptr, ptr %6, align 8, !tbaa !33
  %10 = call { i64, i1 } @llvm.umul.with.overflow.i64(i64 %7, i64 %8)
  %11 = extractvalue { i64, i1 } %10, 1
  %12 = extractvalue { i64, i1 } %10, 0
  store i64 %12, ptr %9, align 8
  ret i1 %11
}

; Function Attrs: mustprogress nounwind uwtable
define internal void @_ZN10__cxxabiv112_GLOBAL__N_114st_heap_block37releaseEv(ptr noundef nonnull align 8 dereferenceable(25) %0) #4 align 2 {
  %2 = alloca ptr, align 8
  store ptr %0, ptr %2, align 8, !tbaa !23
  %3 = load ptr, ptr %2, align 8
  %4 = getelementptr inbounds nuw %"class.__cxxabiv1::(anonymous namespace)::st_heap_block3", ptr %3, i32 0, i32 3
  store i8 0, ptr %4, align 8, !tbaa !29
  ret void
}

; Function Attrs: mustprogress uwtable
define dso_local void @__cxa_vec_ctor(ptr noundef %0, i64 noundef %1, i64 noundef %2, ptr noundef %3, ptr noundef %4) #0 personality ptr @__gxx_personality_v0 {
  %6 = alloca ptr, align 8
  %7 = alloca i64, align 8
  %8 = alloca i64, align 8
  %9 = alloca ptr, align 8
  %10 = alloca ptr, align 8
  %11 = alloca i64, align 8
  %12 = alloca ptr, align 8
  %13 = alloca %"class.__cxxabiv1::(anonymous namespace)::st_cxa_cleanup", align 8
  %14 = alloca ptr, align 8
  %15 = alloca i32, align 4
  store ptr %0, ptr %6, align 8, !tbaa !8
  store i64 %1, ptr %7, align 8, !tbaa !4
  store i64 %2, ptr %8, align 8, !tbaa !4
  store ptr %3, ptr %9, align 8, !tbaa !8
  store ptr %4, ptr %10, align 8, !tbaa !8
  %16 = load ptr, ptr %9, align 8, !tbaa !8
  %17 = icmp ne ptr null, %16
  br i1 %17, label %18, label %43

18:                                               ; preds = %5
  call void @llvm.lifetime.start.p0(i64 8, ptr %11) #10
  call void @llvm.lifetime.start.p0(i64 8, ptr %12) #10
  %19 = load ptr, ptr %6, align 8, !tbaa !8
  store ptr %19, ptr %12, align 8, !tbaa !10
  call void @llvm.lifetime.start.p0(i64 40, ptr %13) #10
  %20 = load ptr, ptr %6, align 8, !tbaa !8
  %21 = load i64, ptr %8, align 8, !tbaa !4
  %22 = load ptr, ptr %10, align 8, !tbaa !8
  call void @_ZN10__cxxabiv112_GLOBAL__N_114st_cxa_cleanupC2EPvRmmPFvS2_E(ptr noundef nonnull align 8 dereferenceable(33) %13, ptr noundef %20, ptr noundef nonnull align 8 dereferenceable(8) %11, i64 noundef %21, ptr noundef %22)
  store i64 0, ptr %11, align 8, !tbaa !4
  br label %23

23:                                               ; preds = %31, %18
  %24 = load i64, ptr %11, align 8, !tbaa !4
  %25 = load i64, ptr %7, align 8, !tbaa !4
  %26 = icmp ult i64 %24, %25
  br i1 %26, label %27, label %41

27:                                               ; preds = %23
  %28 = load ptr, ptr %9, align 8, !tbaa !8
  %29 = load ptr, ptr %12, align 8, !tbaa !10
  invoke void %28(ptr noundef %29)
          to label %30 unwind label %37

30:                                               ; preds = %27
  br label %31

31:                                               ; preds = %30
  %32 = load i64, ptr %11, align 8, !tbaa !4
  %33 = add i64 %32, 1
  store i64 %33, ptr %11, align 8, !tbaa !4
  %34 = load i64, ptr %8, align 8, !tbaa !4
  %35 = load ptr, ptr %12, align 8, !tbaa !10
  %36 = getelementptr inbounds nuw i8, ptr %35, i64 %34
  store ptr %36, ptr %12, align 8, !tbaa !10
  br label %23, !llvm.loop !19

37:                                               ; preds = %41, %27
  %38 = landingpad { ptr, i32 }
          cleanup
  %39 = extractvalue { ptr, i32 } %38, 0
  store ptr %39, ptr %14, align 8
  %40 = extractvalue { ptr, i32 } %38, 1
  store i32 %40, ptr %15, align 4
  call void @_ZN10__cxxabiv112_GLOBAL__N_114st_cxa_cleanupD2Ev(ptr noundef nonnull align 8 dereferenceable(33) %13) #10
  call void @llvm.lifetime.end.p0(i64 40, ptr %13) #10
  call void @llvm.lifetime.end.p0(i64 8, ptr %12) #10
  call void @llvm.lifetime.end.p0(i64 8, ptr %11) #10
  br label %44

41:                                               ; preds = %23
  invoke void @_ZN10__cxxabiv112_GLOBAL__N_114st_cxa_cleanup7releaseEv(ptr noundef nonnull align 8 dereferenceable(33) %13)
          to label %42 unwind label %37

42:                                               ; preds = %41
  call void @_ZN10__cxxabiv112_GLOBAL__N_114st_cxa_cleanupD2Ev(ptr noundef nonnull align 8 dereferenceable(33) %13) #10
  call void @llvm.lifetime.end.p0(i64 40, ptr %13) #10
  call void @llvm.lifetime.end.p0(i64 8, ptr %12) #10
  call void @llvm.lifetime.end.p0(i64 8, ptr %11) #10
  br label %43

43:                                               ; preds = %42, %5
  ret void

44:                                               ; preds = %37
  %45 = load ptr, ptr %14, align 8
  %46 = load i32, ptr %15, align 4
  %47 = insertvalue { ptr, i32 } poison, ptr %45, 0
  %48 = insertvalue { ptr, i32 } %47, i32 %46, 1
  resume { ptr, i32 } %48
}

; Function Attrs: mustprogress nounwind uwtable
define internal void @_ZN10__cxxabiv112_GLOBAL__N_114st_heap_block3D2Ev(ptr noundef nonnull align 8 dereferenceable(25) %0) unnamed_addr #4 align 2 personality ptr @__gxx_personality_v0 {
  %2 = alloca ptr, align 8
  store ptr %0, ptr %2, align 8, !tbaa !23
  %3 = load ptr, ptr %2, align 8
  %4 = getelementptr inbounds nuw %"class.__cxxabiv1::(anonymous namespace)::st_heap_block3", ptr %3, i32 0, i32 3
  %5 = load i8, ptr %4, align 8, !tbaa !29, !range !21, !noundef !22
  %6 = trunc i8 %5 to i1
  br i1 %6, label %7, label %15

7:                                                ; preds = %1
  %8 = getelementptr inbounds nuw %"class.__cxxabiv1::(anonymous namespace)::st_heap_block3", ptr %3, i32 0, i32 0
  %9 = load ptr, ptr %8, align 8, !tbaa !25
  %10 = getelementptr inbounds nuw %"class.__cxxabiv1::(anonymous namespace)::st_heap_block3", ptr %3, i32 0, i32 1
  %11 = load ptr, ptr %10, align 8, !tbaa !27
  %12 = getelementptr inbounds nuw %"class.__cxxabiv1::(anonymous namespace)::st_heap_block3", ptr %3, i32 0, i32 2
  %13 = load i64, ptr %12, align 8, !tbaa !28
  invoke void %9(ptr noundef %11, i64 noundef %13)
          to label %14 unwind label %16

14:                                               ; preds = %7
  br label %15

15:                                               ; preds = %14, %1
  ret void

16:                                               ; preds = %7
  %17 = landingpad { ptr, i32 }
          catch ptr null
  %18 = extractvalue { ptr, i32 } %17, 0
  call void @__clang_call_terminate(ptr %18) #12
  unreachable
}

; Function Attrs: inlinehint mustprogress nounwind uwtable
define internal void @_ZN10__cxxabiv112_GLOBAL__N_119__set_element_countEPvm(ptr noundef %0, i64 noundef %1) #5 {
  %3 = alloca ptr, align 8
  %4 = alloca i64, align 8
  store ptr %0, ptr %3, align 8, !tbaa !8
  store i64 %1, ptr %4, align 8, !tbaa !4
  %5 = load i64, ptr %4, align 8, !tbaa !4
  %6 = load ptr, ptr %3, align 8, !tbaa !8
  %7 = getelementptr inbounds i64, ptr %6, i64 -1
  store i64 %5, ptr %7, align 8, !tbaa !4
  ret void
}

; Function Attrs: mustprogress nounwind uwtable
define internal void @_ZN10__cxxabiv112_GLOBAL__N_114st_heap_block3C2EPFvPvmES2_m(ptr noundef nonnull align 8 dereferenceable(25) %0, ptr noundef %1, ptr noundef %2, i64 noundef %3) unnamed_addr #4 align 2 {
  %5 = alloca ptr, align 8
  %6 = alloca ptr, align 8
  %7 = alloca ptr, align 8
  %8 = alloca i64, align 8
  store ptr %0, ptr %5, align 8, !tbaa !23
  store ptr %1, ptr %6, align 8, !tbaa !8
  store ptr %2, ptr %7, align 8, !tbaa !8
  store i64 %3, ptr %8, align 8, !tbaa !4
  %9 = load ptr, ptr %5, align 8
  %10 = getelementptr inbounds nuw %"class.__cxxabiv1::(anonymous namespace)::st_heap_block3", ptr %9, i32 0, i32 0
  %11 = load ptr, ptr %6, align 8, !tbaa !8
  store ptr %11, ptr %10, align 8, !tbaa !25
  %12 = getelementptr inbounds nuw %"class.__cxxabiv1::(anonymous namespace)::st_heap_block3", ptr %9, i32 0, i32 1
  %13 = load ptr, ptr %7, align 8, !tbaa !8
  store ptr %13, ptr %12, align 8, !tbaa !27
  %14 = getelementptr inbounds nuw %"class.__cxxabiv1::(anonymous namespace)::st_heap_block3", ptr %9, i32 0, i32 2
  %15 = load i64, ptr %8, align 8, !tbaa !4
  store i64 %15, ptr %14, align 8, !tbaa !28
  %16 = getelementptr inbounds nuw %"class.__cxxabiv1::(anonymous namespace)::st_heap_block3", ptr %9, i32 0, i32 3
  store i8 1, ptr %16, align 8, !tbaa !29
  ret void
}

; Function Attrs: mustprogress uwtable
define internal noundef i64 @_ZN10__cxxabiv112_GLOBAL__N_134calculate_allocation_size_or_throwEmmm(i64 noundef %0, i64 noundef %1, i64 noundef %2) #0 {
  %4 = alloca i64, align 8
  %5 = alloca i64, align 8
  %6 = alloca i64, align 8
  %7 = alloca i64, align 8
  %8 = alloca i64, align 8
  store i64 %0, ptr %4, align 8, !tbaa !4
  store i64 %1, ptr %5, align 8, !tbaa !4
  store i64 %2, ptr %6, align 8, !tbaa !4
  call void @llvm.lifetime.start.p0(i64 8, ptr %7) #10
  %9 = load i64, ptr %4, align 8, !tbaa !4
  %10 = load i64, ptr %5, align 8, !tbaa !4
  %11 = call noundef zeroext i1 @_ZN10__cxxabiv112_GLOBAL__N_112mul_overflowEmmPm(i64 noundef %9, i64 noundef %10, ptr noundef %7)
  br i1 %11, label %12, label %13

12:                                               ; preds = %3
  call void @_ZN10__cxxabiv112_GLOBAL__N_126throw_bad_array_new_lengthEv() #11
  unreachable

13:                                               ; preds = %3
  call void @llvm.lifetime.start.p0(i64 8, ptr %8) #10
  %14 = load i64, ptr %7, align 8, !tbaa !4
  %15 = load i64, ptr %6, align 8, !tbaa !4
  %16 = call noundef zeroext i1 @_ZN10__cxxabiv112_GLOBAL__N_112add_overflowEmmPm(i64 noundef %14, i64 noundef %15, ptr noundef %8)
  br i1 %16, label %17, label %18

17:                                               ; preds = %13
  call void @_ZN10__cxxabiv112_GLOBAL__N_126throw_bad_array_new_lengthEv() #11
  unreachable

18:                                               ; preds = %13
  %19 = load i64, ptr %8, align 8, !tbaa !4
  call void @llvm.lifetime.end.p0(i64 8, ptr %8) #10
  call void @llvm.lifetime.end.p0(i64 8, ptr %7) #10
  ret i64 %19
}

; Function Attrs: mustprogress uwtable
define dso_local ptr @__cxa_vec_new3(i64 noundef %0, i64 noundef %1, i64 noundef %2, ptr noundef %3, ptr noundef %4, ptr noundef %5, ptr noundef %6) #0 personality ptr @__gxx_personality_v0 {
  %8 = alloca i64, align 8
  %9 = alloca i64, align 8
  %10 = alloca i64, align 8
  %11 = alloca ptr, align 8
  %12 = alloca ptr, align 8
  %13 = alloca ptr, align 8
  %14 = alloca ptr, align 8
  %15 = alloca i64, align 8
  %16 = alloca ptr, align 8
  %17 = alloca ptr, align 8
  %18 = alloca %"class.__cxxabiv1::(anonymous namespace)::st_heap_block3", align 8
  %19 = alloca ptr, align 8
  %20 = alloca i32, align 4
  store i64 %0, ptr %8, align 8, !tbaa !4
  store i64 %1, ptr %9, align 8, !tbaa !4
  store i64 %2, ptr %10, align 8, !tbaa !4
  store ptr %3, ptr %11, align 8, !tbaa !8
  store ptr %4, ptr %12, align 8, !tbaa !8
  store ptr %5, ptr %13, align 8, !tbaa !8
  store ptr %6, ptr %14, align 8, !tbaa !8
  call void @llvm.lifetime.start.p0(i64 8, ptr %15) #10
  %21 = load i64, ptr %8, align 8, !tbaa !4
  %22 = load i64, ptr %9, align 8, !tbaa !4
  %23 = load i64, ptr %10, align 8, !tbaa !4
  %24 = call noundef i64 @_ZN10__cxxabiv112_GLOBAL__N_134calculate_allocation_size_or_throwEmmm(i64 noundef %21, i64 noundef %22, i64 noundef %23)
  store i64 %24, ptr %15, align 8, !tbaa !4
  call void @llvm.lifetime.start.p0(i64 8, ptr %16) #10
  %25 = load ptr, ptr %13, align 8, !tbaa !8
  %26 = load i64, ptr %15, align 8, !tbaa !4
  %27 = call noundef ptr %25(i64 noundef %26)
  store ptr %27, ptr %16, align 8, !tbaa !10
  call void @llvm.lifetime.start.p0(i64 8, ptr %17) #10
  %28 = load ptr, ptr %16, align 8, !tbaa !10
  store ptr %28, ptr %17, align 8, !tbaa !10
  %29 = load ptr, ptr %17, align 8, !tbaa !10
  %30 = icmp ne ptr null, %29
  br i1 %30, label %31, label %56

31:                                               ; preds = %7
  call void @llvm.lifetime.start.p0(i64 32, ptr %18) #10
  %32 = load ptr, ptr %14, align 8, !tbaa !8
  %33 = load ptr, ptr %16, align 8, !tbaa !10
  %34 = load i64, ptr %15, align 8, !tbaa !4
  call void @_ZN10__cxxabiv112_GLOBAL__N_114st_heap_block3C2EPFvPvmES2_m(ptr noundef nonnull align 8 dereferenceable(25) %18, ptr noundef %32, ptr noundef %33, i64 noundef %34)
  %35 = load i64, ptr %10, align 8, !tbaa !4
  %36 = icmp ne i64 0, %35
  br i1 %36, label %37, label %48

37:                                               ; preds = %31
  %38 = load i64, ptr %10, align 8, !tbaa !4
  %39 = load ptr, ptr %17, align 8, !tbaa !10
  %40 = getelementptr inbounds nuw i8, ptr %39, i64 %38
  store ptr %40, ptr %17, align 8, !tbaa !10
  %41 = load ptr, ptr %17, align 8, !tbaa !10
  %42 = load i64, ptr %8, align 8, !tbaa !4
  invoke void @_ZN10__cxxabiv112_GLOBAL__N_119__set_element_countEPvm(ptr noundef %41, i64 noundef %42)
          to label %43 unwind label %44

43:                                               ; preds = %37
  br label %48

44:                                               ; preds = %54, %48, %37
  %45 = landingpad { ptr, i32 }
          cleanup
  %46 = extractvalue { ptr, i32 } %45, 0
  store ptr %46, ptr %19, align 8
  %47 = extractvalue { ptr, i32 } %45, 1
  store i32 %47, ptr %20, align 4
  call void @_ZN10__cxxabiv112_GLOBAL__N_114st_heap_block3D2Ev(ptr noundef nonnull align 8 dereferenceable(25) %18) #10
  call void @llvm.lifetime.end.p0(i64 32, ptr %18) #10
  call void @llvm.lifetime.end.p0(i64 8, ptr %17) #10
  call void @llvm.lifetime.end.p0(i64 8, ptr %16) #10
  call void @llvm.lifetime.end.p0(i64 8, ptr %15) #10
  br label %58

48:                                               ; preds = %43, %31
  %49 = load ptr, ptr %17, align 8, !tbaa !10
  %50 = load i64, ptr %8, align 8, !tbaa !4
  %51 = load i64, ptr %9, align 8, !tbaa !4
  %52 = load ptr, ptr %11, align 8, !tbaa !8
  %53 = load ptr, ptr %12, align 8, !tbaa !8
  invoke void @__cxa_vec_ctor(ptr noundef %49, i64 noundef %50, i64 noundef %51, ptr noundef %52, ptr noundef %53)
          to label %54 unwind label %44

54:                                               ; preds = %48
  invoke void @_ZN10__cxxabiv112_GLOBAL__N_114st_heap_block37releaseEv(ptr noundef nonnull align 8 dereferenceable(25) %18)
          to label %55 unwind label %44

55:                                               ; preds = %54
  call void @_ZN10__cxxabiv112_GLOBAL__N_114st_heap_block3D2Ev(ptr noundef nonnull align 8 dereferenceable(25) %18) #10
  call void @llvm.lifetime.end.p0(i64 32, ptr %18) #10
  br label %56

56:                                               ; preds = %55, %7
  %57 = load ptr, ptr %17, align 8, !tbaa !10
  call void @llvm.lifetime.end.p0(i64 8, ptr %17) #10
  call void @llvm.lifetime.end.p0(i64 8, ptr %16) #10
  call void @llvm.lifetime.end.p0(i64 8, ptr %15) #10
  ret ptr %57

58:                                               ; preds = %44
  %59 = load ptr, ptr %19, align 8
  %60 = load i32, ptr %20, align 4
  %61 = insertvalue { ptr, i32 } poison, ptr %59, 0
  %62 = insertvalue { ptr, i32 } %61, i32 %60, 1
  resume { ptr, i32 } %62
}